; ModuleID = '31/1747.c'
source_filename = "31/1747.c"
target datalayout = "e-m:e-p270:32:32-p271:32:32-p272:64:64-i64:64-f80:128-n8:16:32:64-S128"
target triple = "x86_64-pc-linux-gnu"

%struct.student = type { [100 x i8], %struct.student* }

@p1 = common dso_local global %struct.student* null, align 8
@p2 = common dso_local global %struct.student* null, align 8
@.str = private unnamed_addr constant [4 x i8] c"end\00", align 1
@.str.1 = private unnamed_addr constant [4 x i8] c"%s\0A\00", align 1

; Function Attrs: noinline nounwind uwtable
define dso_local %struct.student* @creat() #0 {
  %1 = alloca %struct.student*, align 8
  store %struct.student* null, %struct.student** %1, align 8
  store %struct.student* null, %struct.student** @p1, align 8
  store %struct.student* null, %struct.student** @p2, align 8
  br label %2

2:                                                ; preds = %0, %24
  %3 = call noalias i8* @malloc(i64 100) #4
  %4 = bitcast i8* %3 to %struct.student*
  store %struct.student* %4, %struct.student** @p1, align 8
  %5 = load %struct.student*, %struct.student** @p1, align 8
  %6 = getelementptr inbounds %struct.student, %struct.student* %5, i32 0, i32 0
  %7 = getelementptr inbounds [100 x i8], [100 x i8]* %6, i64 0, i64 0
  %8 = call i32 (i8*, ...) bitcast (i32 (...)* @gets to i32 (i8*, ...)*)(i8* %7)
  %9 = load %struct.student*, %struct.student** @p1, align 8
  %10 = getelementptr inbounds %struct.student, %struct.student* %9, i32 0, i32 0
  %11 = getelementptr inbounds [100 x i8], [100 x i8]* %10, i64 0, i64 0
  %12 = call i32 @strcmp(i8* %11, i8* getelementptr inbounds ([4 x i8], [4 x i8]* @.str, i64 0, i64 0)) #5
  %13 = icmp eq i32 %12, 0
  br i1 %13, label %14, label %15

14:                                               ; preds = %2
  br label %26

15:                                               ; preds = %2
  %16 = load %struct.student*, %struct.student** %1, align 8
  %17 = icmp eq %struct.student* %16, null
  br i1 %17, label %18, label %20

18:                                               ; preds = %15
  %19 = load %struct.student*, %struct.student** @p1, align 8
  store %struct.student* %19, %struct.student** %1, align 8
  br label %24

20:                                               ; preds = %15
  %21 = load %struct.student*, %struct.student** @p1, align 8
  %22 = load %struct.student*, %struct.student** @p2, align 8
  %23 = getelementptr inbounds %struct.student, %struct.student* %22, i32 0, i32 1
  store %struct.student* %21, %struct.student** %23, align 8
  br label %24

24:                                               ; preds = %20, %18
  %25 = load %struct.student*, %struct.student** @p1, align 8
  store %struct.student* %25, %struct.student** @p2, align 8
  br label %2

26:                                               ; preds = %14
  %27 = load %struct.student*, %struct.student** @p2, align 8
  %28 = getelementptr inbounds %struct.student, %struct.student* %27, i32 0, i32 1
  store %struct.student* null, %struct.student** %28, align 8
  %29 = load %struct.student*, %struct.student** %1, align 8
  ret %struct.student* %29
}

; Function Attrs: nounwind
declare dso_local noalias i8* @malloc(i64) #1

declare dso_local i32 @gets(...) #2

; Function Attrs: nounwind readonly
declare dso_local i32 @strcmp(i8*, i8*) #3

; Function Attrs: noinline nounwind uwtable
define dso_local %struct.student* @turnback(%struct.student* %0) #0 {
  %2 = alloca %struct.student*, align 8
  %3 = alloca %struct.student*, align 8
  %4 = alloca %struct.student*, align 8
  %5 = alloca %struct.student*, align 8
  %6 = alloca %struct.student*, align 8
  store %struct.student* %0, %struct.student** %2, align 8
  store %struct.student* null, %struct.student** %3, align 8
  br label %7

7:                                                ; preds = %35, %1
  %8 = load %struct.student*, %struct.student** %2, align 8
  store %struct.student* %8, %struct.student** %4, align 8
  store %struct.student* null, %struct.student** %5, align 8
  br label %9

9:                                                ; preds = %14, %7
  %10 = load %struct.student*, %struct.student** %4, align 8
  %11 = getelementptr inbounds %struct.student, %struct.student* %10, i32 0, i32 1
  %12 = load %struct.student*, %struct.student** %11, align 8
  %13 = icmp ne %struct.student* %12, null
  br i1 %13, label %14, label %19

14:                                               ; preds = %9
  %15 = load %struct.student*, %struct.student** %4, align 8
  store %struct.student* %15, %struct.student** %5, align 8
  %16 = load %struct.student*, %struct.student** %4, align 8
  %17 = getelementptr inbounds %struct.student, %struct.student* %16, i32 0, i32 1
  %18 = load %struct.student*, %struct.student** %17, align 8
  store %struct.student* %18, %struct.student** %4, align 8
  br label %9

19:                                               ; preds = %9
  %20 = load %struct.student*, %struct.student** %3, align 8
  %21 = icmp eq %struct.student* %20, null
  br i1 %21, label %22, label %27

22:                                               ; preds = %19
  %23 = load %struct.student*, %struct.student** %4, align 8
  store %struct.student* %23, %struct.student** %3, align 8
  %24 = load %struct.student*, %struct.student** %5, align 8
  %25 = load %struct.student*, %struct.student** %3, align 8
  %26 = getelementptr inbounds %struct.student, %struct.student* %25, i32 0, i32 1
  store %struct.student* %24, %struct.student** %26, align 8
  br label %32

27:                                               ; preds = %19
  %28 = load %struct.student*, %struct.student** %4, align 8
  store %struct.student* %28, %struct.student** %6, align 8
  %29 = load %struct.student*, %struct.student** %5, align 8
  %30 = load %struct.student*, %struct.student** %6, align 8
  %31 = getelementptr inbounds %struct.student, %struct.student* %30, i32 0, i32 1
  store %struct.student* %29, %struct.student** %31, align 8
  br label %32

32:                                               ; preds = %27, %22
  %33 = load %struct.student*, %struct.student** %5, align 8
  %34 = getelementptr inbounds %struct.student, %struct.student* %33, i32 0, i32 1
  store %struct.student* null, %struct.student** %34, align 8
  br label %35

35:                                               ; preds = %32
  %36 = load %struct.student*, %struct.student** %2, align 8
  %37 = getelementptr inbounds %struct.student, %struct.student* %36, i32 0, i32 1
  %38 = load %struct.student*, %struct.student** %37, align 8
  %39 = icmp ne %struct.student* %38, null
  br i1 %39, label %7, label %40

40:                                               ; preds = %35
  %41 = load %struct.student*, %struct.student** %3, align 8
  ret %struct.student* %41
}

; Function Attrs: noinline nounwind uwtable
define dso_local void @output(%struct.student* %0) #0 {
  %2 = alloca %struct.student*, align 8
  %3 = alloca %struct.student*, align 8
  store %struct.student* %0, %struct.student** %2, align 8
  %4 = load %struct.student*, %struct.student** %2, align 8
  store %struct.student* %4, %struct.student** %3, align 8
  br label %5

5:                                                ; preds = %15, %1
  %6 = load %struct.student*, %struct.student** %3, align 8
  %7 = getelementptr inbounds %struct.student, %struct.student* %6, i32 0, i32 1
  %8 = load %struct.student*, %struct.student** %7, align 8
  %9 = icmp ne %struct.student* %8, null
  br i1 %9, label %10, label %19

10:                                               ; preds = %5
  %11 = load %struct.student*, %struct.student** %3, align 8
  %12 = getelementptr inbounds %struct.student, %struct.student* %11, i32 0, i32 0
  %13 = getelementptr inbounds [100 x i8], [100 x i8]* %12, i64 0, i64 0
  %14 = call i32 (i8*, ...) @printf(i8* getelementptr inbounds ([4 x i8], [4 x i8]* @.str.1, i64 0, i64 0), i8* %13)
  br label %15

15:                                               ; preds = %10
  %16 = load %struct.student*, %struct.student** %3, align 8
  %17 = getelementptr inbounds %struct.student, %struct.student* %16, i32 0, i32 1
  %18 = load %struct.student*, %struct.student** %17, align 8
  store %struct.student* %18, %struct.student** %3, align 8
  br label %5

19:                                               ; preds = %5
  %20 = load %struct.student*, %struct.student** %3, align 8
  %21 = getelementptr inbounds %struct.student, %struct.student* %20, i32 0, i32 0
  %22 = getelementptr inbounds [100 x i8], [100 x i8]* %21, i64 0, i64 0
  %23 = call i32 (i8*, ...) @printf(i8* getelementptr inbounds ([4 x i8], [4 x i8]* @.str.1, i64 0, i64 0), i8* %22)
  ret void
}

declare dso_local i32 @printf(i8*, ...) #2

; Function Attrs: noinline nounwind uwtable
define dso_local void @main() #0 {
  %1 = alloca %struct.student*, align 8
  %2 = call %struct.student* @creat()
  store %struct.student* %2, %struct.student** %1, align 8
  %3 = load %struct.student*, %struct.student** %1, align 8
  %4 = call %struct.student* @turnback(%struct.student* %3)
  store %struct.student* %4, %struct.student** %1, align 8
  %5 = load %struct.student*, %struct.student** %1, align 8
  call void @output(%struct.student* %5)
  ret void
}


!llvm.module.flags = !{!0}
!llvm.ident = !{!1}

!0 = !{i32 1, !"wchar_size", i32 4}
!1 = !{!"clang version 10.0.0-4ubuntu1 "}
